target datalayout = "e-m:e-p270:32:32-p271:32:32-p272:64:64-i64:64-i128:128-f80:128-n8:16:32:64-S128"
target triple = "x86_64-pc-linux-gnu"

%struct.pkcs7_st = type { ptr, i64, i32, i32, ptr, %union.anon, %struct.PKCS7_CTX_st }
%union.anon = type { ptr }
%struct.PKCS7_CTX_st = type { ptr, ptr }
%struct.pkcs7_signedandenveloped_st = type { ptr, ptr, ptr, ptr, ptr, ptr, ptr }
%struct.pkcs7_recip_info_st = type { ptr, ptr, ptr, ptr, ptr, ptr }

; Function Attrs: inlinehint nounwind uwtable
define internal ptr @ossl_check_const_PKCS7_RECIP_INFO_sk_type(ptr noundef %0) #3 {
  %2 = alloca ptr, align 8
  store ptr %0, ptr %2, align 8, !tbaa !28
  %3 = load ptr, ptr %2, align 8, !tbaa !28
  ret ptr %3
}

; Function Attrs: nounwind uwtable
define ptr @PKCS7_get_issuer_and_serial(ptr noundef %0, i32 noundef %1) #0 {
  %3 = alloca ptr, align 8
  %4 = alloca ptr, align 8
  %5 = alloca i32, align 4
  %6 = alloca ptr, align 8
  %7 = alloca ptr, align 8
  %8 = alloca i32, align 4
  %9 = alloca i32, align 4
  store ptr %0, ptr %4, align 8, !tbaa !3
  store i32 %1, ptr %5, align 4, !tbaa !8
  call void @llvm.lifetime.start.p0(i64 8, ptr %6) #5
  call void @llvm.lifetime.start.p0(i64 8, ptr %7) #5
  call void @llvm.lifetime.start.p0(i64 4, ptr %8) #5
  %10 = load ptr, ptr %4, align 8, !tbaa !3
  %11 = getelementptr inbounds nuw %struct.pkcs7_st, ptr %10, i32 0, i32 4
  %12 = load ptr, ptr %11, align 8, !tbaa !10
  %13 = call i32 @OBJ_obj2nid(ptr noundef %12)
  store i32 %13, ptr %8, align 4, !tbaa !8
  %14 = load i32, ptr %8, align 4, !tbaa !8
  %15 = icmp ne i32 %14, 24
  br i1 %15, label %16, label %17

16:                                               ; preds = %2
  store ptr null, ptr %3, align 8
  store i32 1, ptr %9, align 4
  br label %47

17:                                               ; preds = %2
  %18 = load ptr, ptr %4, align 8, !tbaa !3
  %19 = getelementptr inbounds nuw %struct.pkcs7_st, ptr %18, i32 0, i32 5
  %20 = load ptr, ptr %19, align 8, !tbaa !17
  %21 = icmp eq ptr %20, null
  br i1 %21, label %22, label %23

22:                                               ; preds = %17
  store ptr null, ptr %3, align 8
  store i32 1, ptr %9, align 4
  br label %47

23:                                               ; preds = %17
  %24 = load ptr, ptr %4, align 8, !tbaa !3
  %25 = getelementptr inbounds nuw %struct.pkcs7_st, ptr %24, i32 0, i32 5
  %26 = load ptr, ptr %25, align 8, !tbaa !17
  %27 = getelementptr inbounds nuw %struct.pkcs7_signedandenveloped_st, ptr %26, i32 0, i32 6
  %28 = load ptr, ptr %27, align 8, !tbaa !45
  store ptr %28, ptr %6, align 8, !tbaa !28
  %29 = load ptr, ptr %6, align 8, !tbaa !28
  %30 = icmp eq ptr %29, null
  br i1 %30, label %31, label %32

31:                                               ; preds = %23
  store ptr null, ptr %3, align 8
  store i32 1, ptr %9, align 4
  br label %47

32:                                               ; preds = %23
  %33 = load ptr, ptr %6, align 8, !tbaa !28
  %34 = call ptr @ossl_check_const_PKCS7_RECIP_INFO_sk_type(ptr noundef %33)
  %35 = call i32 @OPENSSL_sk_num(ptr noundef %34)
  %36 = load i32, ptr %5, align 4, !tbaa !8
  %37 = icmp sle i32 %35, %36
  br i1 %37, label %38, label %39

38:                                               ; preds = %32
  store ptr null, ptr %3, align 8
  store i32 1, ptr %9, align 4
  br label %47

39:                                               ; preds = %32
  %40 = load ptr, ptr %6, align 8, !tbaa !28
  %41 = call ptr @ossl_check_const_PKCS7_RECIP_INFO_sk_type(ptr noundef %40)
  %42 = load i32, ptr %5, align 4, !tbaa !8
  %43 = call ptr @OPENSSL_sk_value(ptr noundef %41, i32 noundef %42)
  store ptr %43, ptr %7, align 8, !tbaa !30
  %44 = load ptr, ptr %7, align 8, !tbaa !30
  %45 = getelementptr inbounds nuw %struct.pkcs7_recip_info_st, ptr %44, i32 0, i32 1
  %46 = load ptr, ptr %45, align 8, !tbaa !92
  store ptr %46, ptr %3, align 8
  store i32 1, ptr %9, align 4
  br label %47

47:                                               ; preds = %39, %38, %31, %22, %16
  call void @llvm.lifetime.end.p0(i64 4, ptr %8) #5
  call void @llvm.lifetime.end.p0(i64 8, ptr %7) #5
  call void @llvm.lifetime.end.p0(i64 8, ptr %6) #5
  %48 = load ptr, ptr %3, align 8
  ret ptr %48
}