; Function Attrs: nounwind uwtable
define ptr @PKCS7_get_issuer_and_serial(ptr noundef readonly captures(none) %0, i32 noundef %1) local_unnamed_addr #0 {
  %3 = getelementptr inbounds nuw i8, ptr %0, i64 24
  %4 = load ptr, ptr %3, align 8, !tbaa !3
  %5 = tail call i32 @OBJ_obj2nid(ptr noundef %4) #4
  %.not = icmp eq i32 %5, 24
  br i1 %.not, label %6, label %20

6:                                                ; preds = %2
  %7 = getelementptr inbounds nuw i8, ptr %0, i64 32
  %8 = load ptr, ptr %7, align 8, !tbaa !14
  %9 = icmp eq ptr %8, null
  br i1 %9, label %20, label %10

10:                                               ; preds = %6
  %11 = getelementptr inbounds nuw i8, ptr %8, i64 48
  %12 = load ptr, ptr %11, align 8, !tbaa !28
  %13 = icmp eq ptr %12, null
  br i1 %13, label %20, label %14

14:                                               ; preds = %10
  %15 = tail call i32 @OPENSSL_sk_num(ptr noundef nonnull %12) #4
  %.not13 = icmp sgt i32 %15, %1
  br i1 %.not13, label %16, label %20

16:                                               ; preds = %14
  %17 = tail call ptr @OPENSSL_sk_value(ptr noundef nonnull %12, i32 noundef %1) #4
  %18 = getelementptr inbounds nuw i8, ptr %17, i64 8
  %19 = load ptr, ptr %18, align 8, !tbaa !71
  br label %20

20:                                               ; preds = %14, %10, %6, %2, %16
  %.0 = phi ptr [ %19, %16 ], [ null, %2 ], [ null, %6 ], [ null, %10 ], [ null, %14 ]
  ret ptr %.0
}